(dp1
S'output'
p2
S"<type 'exceptions.NameError'> global name 'false' is not defined"
p3
sS'layer'
p4
S'/home/salmonmoose/web2py/applications/tombola/controllers/raffle.py'
p5
sS'code'
p6
S'<code object <module> at 0x6fffdddb5b0, file "/home/salmonmoose/web2py/applications/tombola/controllers/raffle.py:make_keys", line 1>'
p7
sS'snapshot'
p8
(dp9
sS'traceback'
p10
S'Traceback (most recent call last):\n  File "/home/salmonmoose/web2py/gluon/restricted.py", line 216, in restricted\n    exec(ccode, environment)\n  File "/home/salmonmoose/web2py/applications/tombola/controllers/raffle.py:make_keys", line 64, in <module>\n  File "/home/salmonmoose/web2py/gluon/globals.py", line 405, in <lambda>\n    self._caller = lambda f: f()\n  File "/home/salmonmoose/web2py/applications/tombola/controllers/raffle.py:make_keys", line 30, in make_keys\n  File "/home/salmonmoose/web2py/applications/tombola/controllers/raffle.py:make_keys", line 57, in __generate_key\nNameError: global name \'false\' is not defined\n'
p11
s.